target datalayout = "e-m:e-p270:32:32-p271:32:32-p272:64:64-i64:64-f80:128-n8:16:32:64-S128"
target triple = "x86_64-pc-linux-gnu"

%struct.student = type { i32, i32, i32, i32 }

@.str = private unnamed_addr constant [3 x i8] c"%d\00", align 1
@.str.1 = private unnamed_addr constant [7 x i8] c"%d%d%d\00", align 1
@.str.2 = private unnamed_addr constant [7 x i8] c"%d %d\0A\00", align 1

; Function Attrs: noinline nounwind uwtable
define dso_local i32 @main() #0 {
  %1 = alloca i32, align 4
  %2 = alloca [100000 x %struct.student], align 16
  %3 = alloca i32, align 4
  %4 = alloca i32, align 4
  %5 = alloca i32, align 4
  %6 = alloca i32, align 4
  %7 = alloca i32, align 4
  %8 = alloca i32, align 4
  %9 = alloca i32, align 4
  %10 = alloca i32, align 4
  %11 = alloca i32, align 4
  %12 = alloca i32, align 4
  %13 = alloca i32, align 4
  store i32 0, i32* %1, align 4
  store i32 0, i32* %13, align 4
  %14 = call i32 (i8*, ...) @__isoc99_scanf(i8* getelementptr inbounds ([3 x i8], [3 x i8]* @.str, i64 0, i64 0), i32* %3)
  store i32 0, i32* %4, align 4
  br label %15

15:                                               ; preds = %48, %0
  %16 = load i32, i32* %4, align 4
  %17 = load i32, i32* %3, align 4
  %18 = icmp slt i32 %16, %17
  br i1 %18, label %19, label %51

19:                                               ; preds = %15
  %20 = load i32, i32* %4, align 4
  %21 = sext i32 %20 to i64
  %22 = getelementptr inbounds [100000 x %struct.student], [100000 x %struct.student]* %2, i64 0, i64 %21
  %23 = getelementptr inbounds %struct.student, %struct.student* %22, i32 0, i32 0
  %24 = load i32, i32* %4, align 4
  %25 = sext i32 %24 to i64
  %26 = getelementptr inbounds [100000 x %struct.student], [100000 x %struct.student]* %2, i64 0, i64 %25
  %27 = getelementptr inbounds %struct.student, %struct.student* %26, i32 0, i32 1
  %28 = load i32, i32* %4, align 4
  %29 = sext i32 %28 to i64
  %30 = getelementptr inbounds [100000 x %struct.student], [100000 x %struct.student]* %2, i64 0, i64 %29
  %31 = getelementptr inbounds %struct.student, %struct.student* %30, i32 0, i32 2
  %32 = call i32 (i8*, ...) @__isoc99_scanf(i8* getelementptr inbounds ([7 x i8], [7 x i8]* @.str.1, i64 0, i64 0), i32* %23, i32* %27, i32* %31)
  %33 = load i32, i32* %4, align 4
  %34 = sext i32 %33 to i64
  %35 = getelementptr inbounds [100000 x %struct.student], [100000 x %struct.student]* %2, i64 0, i64 %34
  %36 = getelementptr inbounds %struct.student, %struct.student* %35, i32 0, i32 1
  %37 = load i32, i32* %36, align 4
  %38 = load i32, i32* %4, align 4
  %39 = sext i32 %38 to i64
  %40 = getelementptr inbounds [100000 x %struct.student], [100000 x %struct.student]* %2, i64 0, i64 %39
  %41 = getelementptr inbounds %struct.student, %struct.student* %40, i32 0, i32 2
  %42 = load i32, i32* %41, align 8
  %43 = add nsw i32 %37, %42
  %44 = load i32, i32* %4, align 4
  %45 = sext i32 %44 to i64
  %46 = getelementptr inbounds [100000 x %struct.student], [100000 x %struct.student]* %2, i64 0, i64 %45
  %47 = getelementptr inbounds %struct.student, %struct.student* %46, i32 0, i32 3
  store i32 %43, i32* %47, align 4
  br label %48

48:                                               ; preds = %19
  %49 = load i32, i32* %4, align 4
  %50 = add nsw i32 %49, 1
  store i32 %50, i32* %4, align 4
  br label %15

51:                                               ; preds = %15
  store i32 0, i32* %13, align 4
  store i32 0, i32* %4, align 4
  br label %52

52:                                               ; preds = %82, %51
  %53 = load i32, i32* %4, align 4
  %54 = load i32, i32* %3, align 4
  %55 = icmp slt i32 %53, %54
  br i1 %55, label %56, label %85

56:                                               ; preds = %52
  %57 = load i32, i32* %4, align 4
  %58 = sext i32 %57 to i64
  %59 = getelementptr inbounds [100000 x %struct.student], [100000 x %struct.student]* %2, i64 0, i64 %58
  %60 = getelementptr inbounds %struct.student, %struct.student* %59, i32 0, i32 3
  %61 = load i32, i32* %60, align 4
  %62 = load i32, i32* %13, align 4
  %63 = icmp sgt i32 %61, %62
  br i1 %63, label %64, label %81

64:                                               ; preds = %56
  %65 = load i32, i32* %4, align 4
  %66 = sext i32 %65 to i64
  %67 = getelementptr inbounds [100000 x %struct.student], [100000 x %struct.student]* %2, i64 0, i64 %66
  %68 = getelementptr inbounds %struct.student, %struct.student* %67, i32 0, i32 3
  %69 = load i32, i32* %68, align 4
  store i32 %69, i32* %13, align 4
  %70 = load i32, i32* %4, align 4
  %71 = sext i32 %70 to i64
  %72 = getelementptr inbounds [100000 x %struct.student], [100000 x %struct.student]* %2, i64 0, i64 %71
  %73 = getelementptr inbounds %struct.student, %struct.student* %72, i32 0, i32 0
  %74 = load i32, i32* %73, align 16
  store i32 %74, i32* %5, align 4
  %75 = load i32, i32* %4, align 4
  %76 = sext i32 %75 to i64
  %77 = getelementptr inbounds [100000 x %struct.student], [100000 x %struct.student]* %2, i64 0, i64 %76
  %78 = getelementptr inbounds %struct.student, %struct.student* %77, i32 0, i32 3
  %79 = load i32, i32* %78, align 4
  store i32 %79, i32* %6, align 4
  %80 = load i32, i32* %4, align 4
  store i32 %80, i32* %11, align 4
  br label %81

81:                                               ; preds = %64, %56
  br label %82

82:                                               ; preds = %81
  %83 = load i32, i32* %4, align 4
  %84 = add nsw i32 %83, 1
  store i32 %84, i32* %4, align 4
  br label %52

85:                                               ; preds = %52
  store i32 0, i32* %13, align 4
  store i32 0, i32* %4, align 4
  br label %86

86:                                               ; preds = %120, %85
  %87 = load i32, i32* %4, align 4
  %88 = load i32, i32* %3, align 4
  %89 = icmp slt i32 %87, %88
  br i1 %89, label %90, label %123

90:                                               ; preds = %86
  %91 = load i32, i32* %4, align 4
  %92 = sext i32 %91 to i64
  %93 = getelementptr inbounds [100000 x %struct.student], [100000 x %struct.student]* %2, i64 0, i64 %92
  %94 = getelementptr inbounds %struct.student, %struct.student* %93, i32 0, i32 3
  %95 = load i32, i32* %94, align 4
  %96 = load i32, i32* %13, align 4
  %97 = icmp sgt i32 %95, %96
  br i1 %97, label %98, label %119

98:                                               ; preds = %90
  %99 = load i32, i32* %4, align 4
  %100 = load i32, i32* %11, align 4
  %101 = icmp ne i32 %99, %100
  br i1 %101, label %102, label %119

102:                                              ; preds = %98
  %103 = load i32, i32* %4, align 4
  %104 = sext i32 %103 to i64
  %105 = getelementptr inbounds [100000 x %struct.student], [100000 x %struct.student]* %2, i64 0, i64 %104
  %106 = getelementptr inbounds %struct.student, %struct.student* %105, i32 0, i32 3
  %107 = load i32, i32* %106, align 4
  store i32 %107, i32* %13, align 4
  %108 = load i32, i32* %4, align 4
  %109 = sext i32 %108 to i64
  %110 = getelementptr inbounds [100000 x %struct.student], [100000 x %struct.student]* %2, i64 0, i64 %109
  %111 = getelementptr inbounds %struct.student, %struct.student* %110, i32 0, i32 0
  %112 = load i32, i32* %111, align 16
  store i32 %112, i32* %7, align 4
  %113 = load i32, i32* %4, align 4
  %114 = sext i32 %113 to i64
  %115 = getelementptr inbounds [100000 x %struct.student], [100000 x %struct.student]* %2, i64 0, i64 %114
  %116 = getelementptr inbounds %struct.student, %struct.student* %115, i32 0, i32 3
  %117 = load i32, i32* %116, align 4
  store i32 %117, i32* %8, align 4
  %118 = load i32, i32* %4, align 4
  store i32 %118, i32* %12, align 4
  br label %119

119:                                              ; preds = %102, %98, %90
  br label %120

120:                                              ; preds = %119
  %121 = load i32, i32* %4, align 4
  %122 = add nsw i32 %121, 1
  store i32 %122, i32* %4, align 4
  br label %86

123:                                              ; preds = %86
  store i32 0, i32* %13, align 4
  store i32 0, i32* %4, align 4
  br label %124

124:                                              ; preds = %161, %123
  %125 = load i32, i32* %4, align 4
  %126 = load i32, i32* %3, align 4
  %127 = icmp slt i32 %125, %126
  br i1 %127, label %128, label %164

128:                                              ; preds = %124
  %129 = load i32, i32* %4, align 4
  %130 = sext i32 %129 to i64
  %131 = getelementptr inbounds [100000 x %struct.student], [100000 x %struct.student]* %2, i64 0, i64 %130
  %132 = getelementptr inbounds %struct.student, %struct.student* %131, i32 0, i32 3
  %133 = load i32, i32* %132, align 4
  %134 = load i32, i32* %13, align 4
  %135 = icmp sgt i32 %133, %134
  br i1 %135, label %136, label %160

136:                                              ; preds = %128
  %137 = load i32, i32* %4, align 4
  %138 = load i32, i32* %12, align 4
  %139 = icmp ne i32 %137, %138
  br i1 %139, label %140, label %160

140:                                              ; preds = %136
  %141 = load i32, i32* %4, align 4
  %142 = load i32, i32* %11, align 4
  %143 = icmp ne i32 %141, %142
  br i1 %143, label %144, label %160

144:                                              ; preds = %140
  %145 = load i32, i32* %4, align 4
  %146 = sext i32 %145 to i64
  %147 = getelementptr inbounds [100000 x %struct.student], [100000 x %struct.student]* %2, i64 0, i64 %146
  %148 = getelementptr inbounds %struct.student, %struct.student* %147, i32 0, i32 3
  %149 = load i32, i32* %148, align 4
  store i32 %149, i32* %13, align 4
  %150 = load i32, i32* %4, align 4
  %151 = sext i32 %150 to i64
  %152 = getelementptr inbounds [100000 x %struct.student], [100000 x %struct.student]* %2, i64 0, i64 %151
  %153 = getelementptr inbounds %struct.student, %struct.student* %152, i32 0, i32 0
  %154 = load i32, i32* %153, align 16
  store i32 %154, i32* %9, align 4
  %155 = load i32, i32* %4, align 4
  %156 = sext i32 %155 to i64
  %157 = getelementptr inbounds [100000 x %struct.student], [100000 x %struct.student]* %2, i64 0, i64 %156
  %158 = getelementptr inbounds %struct.student, %struct.student* %157, i32 0, i32 3
  %159 = load i32, i32* %158, align 4
  store i32 %159, i32* %10, align 4
  br label %160

160:                                              ; preds = %144, %140, %136, %128
  br label %161

161:                                              ; preds = %160
  %162 = load i32, i32* %4, align 4
  %163 = add nsw i32 %162, 1
  store i32 %163, i32* %4, align 4
  br label %124

164:                                              ; preds = %124
  %165 = load i32, i32* %5, align 4
  %166 = load i32, i32* %6, align 4
  %167 = call i32 (i8*, ...) @printf(i8* getelementptr inbounds ([7 x i8], [7 x i8]* @.str.2, i64 0, i64 0), i32 %165, i32 %166)
  %168 = load i32, i32* %7, align 4
  %169 = load i32, i32* %8, align 4
  %170 = call i32 (i8*, ...) @printf(i8* getelementptr inbounds ([7 x i8], [7 x i8]* @.str.2, i64 0, i64 0), i32 %168, i32 %169)
  %171 = load i32, i32* %9, align 4
  %172 = load i32, i32* %10, align 4
  %173 = call i32 (i8*, ...) @printf(i8* getelementptr inbounds ([7 x i8], [7 x i8]* @.str.2, i64 0, i64 0), i32 %171, i32 %172)
  ret i32 0
}